; Function Attrs: mustprogress nofree norecurse nosync nounwind willreturn memory(argmem: read) uwtable
define noundef range(i64 -9223372036854775744, -9223372036854775808) i64 @_ZNK5arrow7compute12RowTableImpl22size_rows_fixed_lengthEl(ptr noundef nonnull readonly align 8 captures(none) dereferenceable(209) %this, i64 noundef %num_rows) local_unnamed_addr #5 align 2 {
entry:
  %fixed_length = getelementptr inbounds nuw i8, ptr %this, i64 12
  %0 = load i32, ptr %fixed_length, align 4
  %conv = zext i32 %0 to i64
  %mul = mul nsw i64 %num_rows, %conv
  %add = add nsw i64 %mul, 64
  ret i64 %add
}